; Function Attrs: nounwind sspstrong uwtable
define internal i64 @ossl_ocspcid_get_issuer_name_hash(i64 noundef %0) #0 {
  %2 = alloca ptr, align 8
  call void @llvm.lifetime.start.p0(i64 8, ptr nonnull %2) #5
  %3 = tail call ptr @rb_check_typeddata(i64 noundef %0, ptr noundef nonnull @ossl_ocsp_certid_type) #5
  %.not = icmp eq ptr %3, null
  br i1 %.not, label %4, label %6

4:                                                ; preds = %1
  %5 = load i64, ptr @rb_eRuntimeError, align 8, !tbaa !6
  tail call void (i64, ptr, ...) @ossl_raise(i64 noundef %5, ptr noundef nonnull @.str.77) #6
  unreachable

6:                                                ; preds = %1
  %7 = call i32 @OCSP_id_get0_info(ptr noundef nonnull %2, ptr noundef null, ptr noundef null, ptr noundef null, ptr noundef nonnull %3) #5
  %8 = load ptr, ptr %2, align 8, !tbaa !62
  %9 = load i32, ptr %8, align 8, !tbaa !86
  %10 = shl nsw i32 %9, 1
  %11 = sext i32 %10 to i64
  %12 = call i64 @rb_str_new(ptr noundef null, i64 noundef %11) #5, !callees !35
  %13 = load ptr, ptr %2, align 8, !tbaa !62
  %14 = getelementptr inbounds nuw i8, ptr %13, i64 8
  %15 = load ptr, ptr %14, align 8, !tbaa !88
  %16 = inttoptr i64 %12 to ptr
  %17 = load i64, ptr %16, align 8, !tbaa !16, !noalias !89
  %18 = and i64 %17, 8192
  %.not.i.i = icmp eq i64 %18, 0
  %19 = getelementptr inbounds nuw i8, ptr %16, i64 24
  br i1 %.not.i.i, label %RSTRING_PTR.exit, label %20

20:                                               ; preds = %6
  %.sroa.2.0.copyload.i = load ptr, ptr %19, align 8
  br label %RSTRING_PTR.exit

RSTRING_PTR.exit:                                 ; preds = %6, %20
  %.sroa.2.0.i = phi ptr [ %.sroa.2.0.copyload.i, %20 ], [ %19, %6 ]
  %21 = load i32, ptr %13, align 8, !tbaa !86
  %22 = sext i32 %21 to i64
  call void @ossl_bin2hex(ptr noundef %15, ptr noundef %.sroa.2.0.i, i64 noundef %22) #5
  call void @llvm.lifetime.end.p0(i64 8, ptr nonnull %2) #5
  ret i64 %12
}